target datalayout = "e-m:e-p270:32:32-p271:32:32-p272:64:64-i64:64-i128:128-f80:128-n8:16:32:64-S128"
target triple = "x86_64-pc-linux-gnu"

%"struct.std::atomic.126" = type { %"struct.std::__atomic_base.127" }
%"struct.std::__atomic_base.127" = type { i8 }
%class.z3_log_ctx = type { i8 }

@_ZTI12z3_exception = external constant ptr
@g_z3_log_enabled = external global %"struct.std::atomic.126", align 1
@_ZN3api7contextC1EP18ast_context_paramsb = hidden unnamed_addr alias void (ptr, ptr, i1), ptr @_ZN3api7contextC2EP18ast_context_paramsb

; Function Attrs: noinline noreturn nounwind uwtable
define linkonce_odr hidden void @__clang_call_terminate(ptr noundef %0) #10 comdat {
  %2 = call ptr @__cxa_begin_catch(ptr %0) #3
  call void @_ZSt9terminatev() #21
  unreachable
}

; Function Attrs: mustprogress nounwind uwtable
define linkonce_odr noundef i32 @_ZStanSt12memory_orderSt23__memory_order_modifier(i32 noundef %0, i32 noundef %1) #5 comdat {
  %3 = alloca i32, align 4
  %4 = alloca i32, align 4
  store i32 %0, ptr %3, align 4, !tbaa !912
  store i32 %1, ptr %4, align 4, !tbaa !916
  %5 = load i32, ptr %3, align 4, !tbaa !912
  %6 = load i32, ptr %4, align 4, !tbaa !916
  %7 = and i32 %5, %6
  ret i32 %7
}

; Function Attrs: alwaysinline mustprogress nounwind uwtable
define linkonce_odr hidden void @_ZNSt13__atomic_baseIbE5storeEbSt12memory_order(ptr noundef nonnull align 1 dereferenceable(1) %0, i1 noundef zeroext %1, i32 noundef %2) #15 comdat align 2 personality ptr @__gxx_personality_v0 {
  %4 = alloca ptr, align 8
  %5 = alloca i8, align 1
  %6 = alloca i32, align 4
  %7 = alloca i32, align 4
  %8 = alloca i8, align 1
  store ptr %0, ptr %4, align 8, !tbaa !914
  %9 = zext i1 %1 to i8
  store i8 %9, ptr %5, align 1, !tbaa !206
  store i32 %2, ptr %6, align 4, !tbaa !912
  %10 = load ptr, ptr %4, align 8
  call void @llvm.lifetime.start.p0(i64 4, ptr %7) #3
  %11 = load i32, ptr %6, align 4, !tbaa !912
  %12 = invoke noundef i32 @_ZStanSt12memory_orderSt23__memory_order_modifier(i32 noundef %11, i32 noundef 65535)
          to label %13 unwind label %35

13:                                               ; preds = %3
  store i32 %12, ptr %7, align 4, !tbaa !912
  br label %14

14:                                               ; preds = %13
  br label %15

15:                                               ; preds = %14
  br label %16

16:                                               ; preds = %15
  br label %17

17:                                               ; preds = %16
  br label %18

18:                                               ; preds = %17
  br label %19

19:                                               ; preds = %18
  br label %20

20:                                               ; preds = %19
  br label %21

21:                                               ; preds = %20
  br label %22

22:                                               ; preds = %21
  %23 = getelementptr inbounds nuw %"struct.std::__atomic_base.127", ptr %10, i32 0, i32 0
  %24 = load i32, ptr %6, align 4, !tbaa !912
  %25 = load i8, ptr %5, align 1, !tbaa !206, !range !170, !noundef !171
  %26 = trunc i8 %25 to i1
  %27 = zext i1 %26 to i8
  store i8 %27, ptr %8, align 1, !tbaa !206
  switch i32 %24, label %28 [
    i32 3, label %30
    i32 5, label %32
  ]

28:                                               ; preds = %22
  %29 = load i8, ptr %8, align 1
  store atomic i8 %29, ptr %23 monotonic, align 1
  br label %34

30:                                               ; preds = %22
  %31 = load i8, ptr %8, align 1
  store atomic i8 %31, ptr %23 release, align 1
  br label %34

32:                                               ; preds = %22
  %33 = load i8, ptr %8, align 1
  store atomic i8 %33, ptr %23 seq_cst, align 1
  br label %34

34:                                               ; preds = %32, %30, %28
  call void @llvm.lifetime.end.p0(i64 4, ptr %7) #3
  ret void

35:                                               ; preds = %3
  %36 = landingpad { ptr, i32 }
          catch ptr null
  %37 = extractvalue { ptr, i32 } %36, 0
  call void @__clang_call_terminate(ptr %37) #21
  unreachable
}

; Function Attrs: mustprogress nounwind uwtable
define linkonce_odr hidden noundef zeroext i1 @_ZNSt13__atomic_baseIbEaSEb(ptr noundef nonnull align 1 dereferenceable(1) %0, i1 noundef zeroext %1) #5 comdat align 2 {
  %3 = alloca ptr, align 8
  %4 = alloca i8, align 1
  store ptr %0, ptr %3, align 8, !tbaa !914
  %5 = zext i1 %1 to i8
  store i8 %5, ptr %4, align 1, !tbaa !206
  %6 = load ptr, ptr %3, align 8
  %7 = load i8, ptr %4, align 1, !tbaa !206, !range !170, !noundef !171
  %8 = trunc i8 %7 to i1
  call void @_ZNSt13__atomic_baseIbE5storeEbSt12memory_order(ptr noundef nonnull align 1 dereferenceable(1) %6, i1 noundef zeroext %8, i32 noundef 5) #3
  %9 = load i8, ptr %4, align 1, !tbaa !206, !range !170, !noundef !171
  %10 = trunc i8 %9 to i1
  ret i1 %10
}

; Function Attrs: alwaysinline mustprogress nounwind uwtable
define linkonce_odr hidden noundef zeroext i1 @_ZNSt13__atomic_baseIbE8exchangeEbSt12memory_order(ptr noundef nonnull align 1 dereferenceable(1) %0, i1 noundef zeroext %1, i32 noundef %2) #15 comdat align 2 {
  %4 = alloca ptr, align 8
  %5 = alloca i8, align 1
  %6 = alloca i32, align 4
  %7 = alloca i8, align 1
  %8 = alloca i8, align 1
  store ptr %0, ptr %4, align 8, !tbaa !914
  %9 = zext i1 %1 to i8
  store i8 %9, ptr %5, align 1, !tbaa !206
  store i32 %2, ptr %6, align 4, !tbaa !912
  %10 = load ptr, ptr %4, align 8
  %11 = getelementptr inbounds nuw %"struct.std::__atomic_base.127", ptr %10, i32 0, i32 0
  %12 = load i32, ptr %6, align 4, !tbaa !912
  %13 = load i8, ptr %5, align 1, !tbaa !206, !range !170, !noundef !171
  %14 = trunc i8 %13 to i1
  %15 = zext i1 %14 to i8
  store i8 %15, ptr %7, align 1, !tbaa !206
  switch i32 %12, label %16 [
    i32 1, label %19
    i32 2, label %19
    i32 3, label %22
    i32 4, label %25
    i32 5, label %28
  ]

16:                                               ; preds = %3
  %17 = load i8, ptr %7, align 1
  %18 = atomicrmw xchg ptr %11, i8 %17 monotonic, align 1
  store i8 %18, ptr %8, align 1
  br label %31

19:                                               ; preds = %3, %3
  %20 = load i8, ptr %7, align 1
  %21 = atomicrmw xchg ptr %11, i8 %20 acquire, align 1
  store i8 %21, ptr %8, align 1
  br label %31

22:                                               ; preds = %3
  %23 = load i8, ptr %7, align 1
  %24 = atomicrmw xchg ptr %11, i8 %23 release, align 1
  store i8 %24, ptr %8, align 1
  br label %31

25:                                               ; preds = %3
  %26 = load i8, ptr %7, align 1
  %27 = atomicrmw xchg ptr %11, i8 %26 acq_rel, align 1
  store i8 %27, ptr %8, align 1
  br label %31

28:                                               ; preds = %3
  %29 = load i8, ptr %7, align 1
  %30 = atomicrmw xchg ptr %11, i8 %29 seq_cst, align 1
  store i8 %30, ptr %8, align 1
  br label %31

31:                                               ; preds = %28, %25, %22, %19, %16
  %32 = load i8, ptr %8, align 1, !tbaa !206, !range !170, !noundef !171
  %33 = trunc i8 %32 to i1
  ret i1 %33
}

; Function Attrs: mustprogress nounwind uwtable
define linkonce_odr hidden noundef zeroext i1 @_ZNSt6atomicIbEaSEb(ptr noundef nonnull align 1 dereferenceable(1) %0, i1 noundef zeroext %1) #5 comdat align 2 {
  %3 = alloca ptr, align 8
  %4 = alloca i8, align 1
  store ptr %0, ptr %3, align 8, !tbaa !910
  %5 = zext i1 %1 to i8
  store i8 %5, ptr %4, align 1, !tbaa !206
  %6 = load ptr, ptr %3, align 8
  %7 = getelementptr inbounds nuw %"struct.std::atomic.126", ptr %6, i32 0, i32 0
  %8 = load i8, ptr %4, align 1, !tbaa !206, !range !170, !noundef !171
  %9 = trunc i8 %8 to i1
  %10 = call noundef zeroext i1 @_ZNSt13__atomic_baseIbEaSEb(ptr noundef nonnull align 1 dereferenceable(1) %7, i1 noundef zeroext %9) #3
  ret i1 %10
}

; Function Attrs: mustprogress nounwind uwtable
define linkonce_odr hidden noundef zeroext i1 @_ZNSt6atomicIbE8exchangeEbSt12memory_order(ptr noundef nonnull align 1 dereferenceable(1) %0, i1 noundef zeroext %1, i32 noundef %2) #5 comdat align 2 {
  %4 = alloca ptr, align 8
  %5 = alloca i8, align 1
  %6 = alloca i32, align 4
  store ptr %0, ptr %4, align 8, !tbaa !910
  %7 = zext i1 %1 to i8
  store i8 %7, ptr %5, align 1, !tbaa !206
  store i32 %2, ptr %6, align 4, !tbaa !912
  %8 = load ptr, ptr %4, align 8
  %9 = getelementptr inbounds nuw %"struct.std::atomic.126", ptr %8, i32 0, i32 0
  %10 = load i8, ptr %5, align 1, !tbaa !206, !range !170, !noundef !171
  %11 = trunc i8 %10 to i1
  %12 = load i32, ptr %6, align 4, !tbaa !912
  %13 = call noundef zeroext i1 @_ZNSt13__atomic_baseIbE8exchangeEbSt12memory_order(ptr noundef nonnull align 1 dereferenceable(1) %9, i1 noundef zeroext %11, i32 noundef %12) #3
  ret i1 %13
}

; Function Attrs: mustprogress nounwind uwtable
define linkonce_odr hidden void @_ZN10z3_log_ctxD2Ev(ptr noundef nonnull align 1 dereferenceable(1) %0) unnamed_addr #5 comdat align 2 {
  %2 = alloca ptr, align 8
  store ptr %0, ptr %2, align 8, !tbaa !482
  %3 = load ptr, ptr %2, align 8
  %4 = getelementptr inbounds nuw %class.z3_log_ctx, ptr %3, i32 0, i32 0
  %5 = load i8, ptr %4, align 1, !tbaa !484, !range !170, !noundef !171
  %6 = trunc i8 %5 to i1
  %7 = call i1 @llvm.expect.i1(i1 %6, i1 false)
  br i1 %7, label %8, label %10

8:                                                ; preds = %1
  %9 = call noundef zeroext i1 @_ZNSt6atomicIbEaSEb(ptr noundef nonnull align 1 dereferenceable(1) @g_z3_log_enabled, i1 noundef zeroext true) #3
  br label %10

10:                                               ; preds = %8, %1
  ret void
}

; Function Attrs: mustprogress nounwind uwtable
define linkonce_odr hidden noundef zeroext i1 @_ZNK10z3_log_ctx7enabledEv(ptr noundef nonnull align 1 dereferenceable(1) %0) #5 comdat align 2 {
  %2 = alloca ptr, align 8
  store ptr %0, ptr %2, align 8, !tbaa !482
  %3 = load ptr, ptr %2, align 8
  %4 = getelementptr inbounds nuw %class.z3_log_ctx, ptr %3, i32 0, i32 0
  %5 = load i8, ptr %4, align 1, !tbaa !484, !range !170, !noundef !171
  %6 = trunc i8 %5 to i1
  ret i1 %6
}

; Function Attrs: mustprogress nounwind uwtable
define linkonce_odr hidden void @_ZN10z3_log_ctxC2Ev(ptr noundef nonnull align 1 dereferenceable(1) %0) unnamed_addr #5 comdat align 2 {
  %2 = alloca ptr, align 8
  store ptr %0, ptr %2, align 8, !tbaa !482
  %3 = load ptr, ptr %2, align 8
  %4 = call noundef zeroext i1 @_ZNSt6atomicIbE8exchangeEbSt12memory_order(ptr noundef nonnull align 1 dereferenceable(1) @g_z3_log_enabled, i1 noundef zeroext false, i32 noundef 5) #3
  %5 = getelementptr inbounds nuw %class.z3_log_ctx, ptr %3, i32 0, i32 0
  %6 = zext i1 %4 to i8
  store i8 %6, ptr %5, align 1, !tbaa !484
  ret void
}

; Function Attrs: mustprogress uwtable
define ptr @Z3_mk_context(ptr noundef %0) #4 personality ptr @__gxx_personality_v0 {
  %2 = alloca ptr, align 8
  %3 = alloca ptr, align 8
  %4 = alloca %class.z3_log_ctx, align 1
  %5 = alloca ptr, align 8
  %6 = alloca i32, align 4
  %7 = alloca ptr, align 8
  %8 = alloca ptr, align 8
  %9 = alloca i32, align 4
  %10 = alloca ptr, align 8
  store ptr %0, ptr %3, align 8, !tbaa !480
  call void @llvm.lifetime.start.p0(i64 1, ptr %4) #3
  invoke void @_ZN10z3_log_ctxC2Ev(ptr noundef nonnull align 1 dereferenceable(1) %4)
          to label %11 unwind label %17

11:                                               ; preds = %1
  %12 = invoke noundef zeroext i1 @_ZNK10z3_log_ctx7enabledEv(ptr noundef nonnull align 1 dereferenceable(1) %4)
          to label %13 unwind label %21

13:                                               ; preds = %11
  br i1 %12, label %14, label %25

14:                                               ; preds = %13
  %15 = load ptr, ptr %3, align 8, !tbaa !480
  invoke void @_Z17log_Z3_mk_contextP10_Z3_config(ptr noundef %15)
          to label %16 unwind label %21

16:                                               ; preds = %14
  br label %25

17:                                               ; preds = %1
  %18 = landingpad { ptr, i32 }
          cleanup
          catch ptr @_ZTI12z3_exception
  %19 = extractvalue { ptr, i32 } %18, 0
  store ptr %19, ptr %5, align 8
  %20 = extractvalue { ptr, i32 } %18, 1
  store i32 %20, ptr %6, align 4
  br label %56

21:                                               ; preds = %25, %14, %11
  %22 = landingpad { ptr, i32 }
          cleanup
          catch ptr @_ZTI12z3_exception
  %23 = extractvalue { ptr, i32 } %22, 0
  store ptr %23, ptr %5, align 8
  %24 = extractvalue { ptr, i32 } %22, 1
  store i32 %24, ptr %6, align 4
  br label %55

25:                                               ; preds = %16, %13
  invoke void @_ZN6memory10initializeEm(i64 noundef 4294967295)
          to label %26 unwind label %21

26:                                               ; preds = %25
  call void @llvm.lifetime.start.p0(i64 8, ptr %7) #3
  %27 = invoke noalias noundef ptr @_ZN6memory8allocateEm(i64 noundef 3056)
          to label %28 unwind label %39

28:                                               ; preds = %26
  %29 = load ptr, ptr %3, align 8, !tbaa !480
  invoke void @_ZN3api7contextC1EP18ast_context_paramsb(ptr noundef nonnull align 8 dereferenceable(3056) %27, ptr noundef %29, i1 noundef zeroext false)
          to label %30 unwind label %39

30:                                               ; preds = %28
  store ptr %27, ptr %7, align 8, !tbaa !346
  br label %31

31:                                               ; preds = %30
  call void @llvm.lifetime.start.p0(i64 8, ptr %8) #3
  %32 = load ptr, ptr %7, align 8, !tbaa !346
  store ptr %32, ptr %8, align 8, !tbaa !346
  %33 = invoke noundef zeroext i1 @_ZNK10z3_log_ctx7enabledEv(ptr noundef nonnull align 1 dereferenceable(1) %4)
          to label %34 unwind label %43

34:                                               ; preds = %31
  %35 = call i1 @llvm.expect.i1(i1 %33, i1 false)
  br i1 %35, label %36, label %47

36:                                               ; preds = %34
  %37 = load ptr, ptr %8, align 8, !tbaa !346
  invoke void @_Z4SetRPKv(ptr noundef %37)
          to label %38 unwind label %43

38:                                               ; preds = %36
  br label %47

39:                                               ; preds = %28, %26
  %40 = landingpad { ptr, i32 }
          cleanup
          catch ptr @_ZTI12z3_exception
  %41 = extractvalue { ptr, i32 } %40, 0
  store ptr %41, ptr %5, align 8
  %42 = extractvalue { ptr, i32 } %40, 1
  store i32 %42, ptr %6, align 4
  br label %54

43:                                               ; preds = %36, %31
  %44 = landingpad { ptr, i32 }
          cleanup
          catch ptr @_ZTI12z3_exception
  %45 = extractvalue { ptr, i32 } %44, 0
  store ptr %45, ptr %5, align 8
  %46 = extractvalue { ptr, i32 } %44, 1
  store i32 %46, ptr %6, align 4
  call void @llvm.lifetime.end.p0(i64 8, ptr %8) #3
  br label %54

47:                                               ; preds = %38, %34
  %48 = load ptr, ptr %8, align 8, !tbaa !346
  store ptr %48, ptr %2, align 8
  store i32 1, ptr %9, align 4
  call void @llvm.lifetime.end.p0(i64 8, ptr %8) #3
  br label %51

49:                                               ; No predecessors!
  br label %50

50:                                               ; preds = %49
  store i32 0, ptr %9, align 4
  br label %51

51:                                               ; preds = %50, %47
  call void @llvm.lifetime.end.p0(i64 8, ptr %7) #3
  call void @_ZN10z3_log_ctxD2Ev(ptr noundef nonnull align 1 dereferenceable(1) %4) #3
  call void @llvm.lifetime.end.p0(i64 1, ptr %4) #3
  %52 = load i32, ptr %9, align 4
  switch i32 %52, label %72 [
    i32 0, label %53
    i32 1, label %65
  ]

53:                                               ; preds = %51
  br label %64

54:                                               ; preds = %43, %39
  call void @llvm.lifetime.end.p0(i64 8, ptr %7) #3
  br label %55

55:                                               ; preds = %54, %21
  call void @_ZN10z3_log_ctxD2Ev(ptr noundef nonnull align 1 dereferenceable(1) %4) #3
  br label %56

56:                                               ; preds = %55, %17
  call void @llvm.lifetime.end.p0(i64 1, ptr %4) #3
  br label %57

57:                                               ; preds = %56
  %58 = load i32, ptr %6, align 4
  %59 = call i32 @llvm.eh.typeid.for.p0(ptr @_ZTI12z3_exception) #3
  %60 = icmp eq i32 %58, %59
  br i1 %60, label %61, label %67

61:                                               ; preds = %57
  call void @llvm.lifetime.start.p0(i64 8, ptr %10) #3
  %62 = load ptr, ptr %5, align 8
  %63 = call ptr @__cxa_begin_catch(ptr %62) #3
  store ptr %63, ptr %10, align 8
  store ptr null, ptr %2, align 8
  store i32 1, ptr %9, align 4
  call void @__cxa_end_catch()
  call void @llvm.lifetime.end.p0(i64 8, ptr %10) #3
  br label %65

64:                                               ; preds = %53
  unreachable

65:                                               ; preds = %61, %51
  %66 = load ptr, ptr %2, align 8
  ret ptr %66

67:                                               ; preds = %57
  %68 = load ptr, ptr %5, align 8
  %69 = load i32, ptr %6, align 4
  %70 = insertvalue { ptr, i32 } poison, ptr %68, 0
  %71 = insertvalue { ptr, i32 } %70, i32 %69, 1
  resume { ptr, i32 } %71

72:                                               ; preds = %51
  unreachable
}