; Function Attrs: mustprogress uwtable
define noundef ptr @Z3_mk_context(ptr noundef %0) local_unnamed_addr #3 personality ptr @__gxx_personality_v0 {
  %2 = atomicrmw xchg ptr @g_z3_log_enabled, i8 0 seq_cst, align 1
  %3 = trunc i8 %2 to i1
  br i1 %3, label %4, label %7

4:                                                ; preds = %1
  invoke void @_Z17log_Z3_mk_contextP10_Z3_config(ptr noundef %0)
          to label %7 unwind label %5

5:                                                ; preds = %7, %4
  %6 = landingpad { ptr, i32 }
          cleanup
          catch ptr @_ZTI12z3_exception
  br label %17

7:                                                ; preds = %4, %1
  invoke void @_ZN6memory10initializeEm(i64 noundef 4294967295)
          to label %8 unwind label %5

8:                                                ; preds = %7
  %9 = invoke noalias noundef ptr @_ZN6memory8allocateEm(i64 noundef 3056)
          to label %10 unwind label %13

10:                                               ; preds = %8
  invoke void @_ZN3api7contextC2EP18ast_context_paramsb(ptr noundef nonnull align 8 dereferenceable(3056) %9, ptr noundef %0, i1 noundef zeroext false)
          to label %11 unwind label %13

11:                                               ; preds = %10
  br i1 %3, label %12, label %_ZN10z3_log_ctxD2Ev.exit, !prof !442

12:                                               ; preds = %11
  invoke void @_Z4SetRPKv(ptr noundef nonnull %9)
          to label %16 unwind label %.thread18

13:                                               ; preds = %10, %8
  %14 = landingpad { ptr, i32 }
          cleanup
          catch ptr @_ZTI12z3_exception
  br label %17

.thread18:                                        ; preds = %12
  %15 = landingpad { ptr, i32 }
          cleanup
          catch ptr @_ZTI12z3_exception
  %.01020 = extractvalue { ptr, i32 } %15, 1
  br label %18

16:                                               ; preds = %12
  store atomic i8 1, ptr @g_z3_log_enabled seq_cst, align 1
  br label %_ZN10z3_log_ctxD2Ev.exit

17:                                               ; preds = %13, %5
  %.pn.pn = phi { ptr, i32 } [ %6, %5 ], [ %14, %13 ]
  %.010 = extractvalue { ptr, i32 } %.pn.pn, 1
  br i1 %3, label %18, label %_ZN10z3_log_ctxD2Ev.exit14, !prof !548

18:                                               ; preds = %.thread18, %17
  %.01024 = phi i32 [ %.01020, %.thread18 ], [ %.010, %17 ]
  %.pn.pn22 = phi { ptr, i32 } [ %15, %.thread18 ], [ %.pn.pn, %17 ]
  store atomic i8 1, ptr @g_z3_log_enabled seq_cst, align 1
  br label %_ZN10z3_log_ctxD2Ev.exit14

_ZN10z3_log_ctxD2Ev.exit14:                       ; preds = %17, %18
  %.01023 = phi i32 [ %.010, %17 ], [ %.01024, %18 ]
  %.pn.pn21 = phi { ptr, i32 } [ %.pn.pn, %17 ], [ %.pn.pn22, %18 ]
  %19 = tail call i32 @llvm.eh.typeid.for.p0(ptr nonnull @_ZTI12z3_exception) #28
  %20 = icmp eq i32 %.01023, %19
  br i1 %20, label %21, label %23

21:                                               ; preds = %_ZN10z3_log_ctxD2Ev.exit14
  %.09 = extractvalue { ptr, i32 } %.pn.pn21, 0
  %22 = tail call ptr @__cxa_begin_catch(ptr %.09) #28
  tail call void @__cxa_end_catch()
  br label %_ZN10z3_log_ctxD2Ev.exit

_ZN10z3_log_ctxD2Ev.exit:                         ; preds = %16, %11, %21
  %.0 = phi ptr [ null, %21 ], [ %9, %11 ], [ %9, %16 ]
  ret ptr %.0

23:                                               ; preds = %_ZN10z3_log_ctxD2Ev.exit14
  resume { ptr, i32 } %.pn.pn21
}